; Function Attrs: nounwind uwtable
define internal ptr @_codecs_utf_16_be_encode(ptr readnone captures(none) %0, ptr noundef readonly captures(none) %1, i64 noundef %2) #0 {
  %4 = alloca i64, align 8
  %5 = add i64 %2, -1
  %or.cond = icmp ult i64 %5, 2
  br i1 %or.cond, label %8, label %6

6:                                                ; preds = %3
  %7 = tail call i32 @_PyArg_CheckPositional(ptr noundef nonnull @.str.14, i64 noundef %2, i64 noundef 1, i64 noundef 2) #5
  %.not = icmp eq i32 %7, 0
  br i1 %.not, label %_codecs_utf_16_be_encode_impl.exit, label %8

8:                                                ; preds = %3, %6
  %9 = load ptr, ptr %1, align 8, !tbaa !22
  %10 = getelementptr i8, ptr %9, i64 8
  %.val = load ptr, ptr %10, align 8, !tbaa !4
  %11 = getelementptr i8, ptr %.val, i64 168
  %.val29 = load i64, ptr %11, align 8, !tbaa !10
  %12 = and i64 %.val29, 268435456
  %.not24 = icmp eq i64 %12, 0
  br i1 %.not24, label %13, label %14

13:                                               ; preds = %8
  tail call void @_PyArg_BadArgument(ptr noundef nonnull @.str.14, ptr noundef nonnull @.str.50, ptr noundef nonnull @.str.43, ptr noundef nonnull %9) #5
  br label %_codecs_utf_16_be_encode_impl.exit

14:                                               ; preds = %8
  %15 = icmp slt i64 %2, 2
  br i1 %15, label %34, label %16

16:                                               ; preds = %14
  %17 = getelementptr i8, ptr %1, i64 8
  %18 = load ptr, ptr %17, align 8, !tbaa !22
  %19 = icmp eq ptr %18, @_Py_NoneStruct
  br i1 %19, label %34, label %20

20:                                               ; preds = %16
  %21 = getelementptr i8, ptr %18, i64 8
  %.val28 = load ptr, ptr %21, align 8, !tbaa !4
  %22 = getelementptr i8, ptr %.val28, i64 168
  %.val30 = load i64, ptr %22, align 8, !tbaa !10
  %23 = and i64 %.val30, 268435456
  %.not25 = icmp eq i64 %23, 0
  br i1 %.not25, label %33, label %24

24:                                               ; preds = %20
  call void @llvm.lifetime.start.p0(i64 8, ptr nonnull %4) #5
  %25 = call ptr @PyUnicode_AsUTF8AndSize(ptr noundef %18, ptr noundef nonnull %4) #5
  %26 = icmp eq ptr %25, null
  br i1 %26, label %.thread, label %27

27:                                               ; preds = %24
  %28 = call i64 @strlen(ptr noundef nonnull dereferenceable(1) %25) #6
  %29 = load i64, ptr %4, align 8, !tbaa !21
  %.not26 = icmp eq i64 %28, %29
  br i1 %.not26, label %32, label %30

30:                                               ; preds = %27
  %31 = load ptr, ptr @PyExc_ValueError, align 8, !tbaa !22
  call void @PyErr_SetString(ptr noundef %31, ptr noundef nonnull @.str.44) #5
  br label %.thread

.thread:                                          ; preds = %30, %24
  call void @llvm.lifetime.end.p0(i64 8, ptr nonnull %4) #5
  br label %_codecs_utf_16_be_encode_impl.exit

32:                                               ; preds = %27
  call void @llvm.lifetime.end.p0(i64 8, ptr nonnull %4) #5
  br label %34

33:                                               ; preds = %20
  tail call void @_PyArg_BadArgument(ptr noundef nonnull @.str.14, ptr noundef nonnull @.str.52, ptr noundef nonnull @.str.53, ptr noundef %18) #5
  br label %_codecs_utf_16_be_encode_impl.exit

34:                                               ; preds = %32, %16, %14
  %.019 = phi ptr [ null, %14 ], [ %25, %32 ], [ null, %16 ]
  %35 = call ptr @_PyUnicode_EncodeUTF16(ptr noundef nonnull %9, ptr noundef %.019, i32 noundef 1) #5
  %36 = icmp eq ptr %35, null
  br i1 %36, label %_codecs_utf_16_be_encode_impl.exit, label %37

37:                                               ; preds = %34
  %38 = getelementptr i8, ptr %9, i64 16
  %.val.i = load i64, ptr %38, align 8, !tbaa !33
  %39 = call ptr (ptr, ...) @Py_BuildValue(ptr noundef nonnull @.str.55, ptr noundef nonnull %35, i64 noundef %.val.i) #5
  br label %_codecs_utf_16_be_encode_impl.exit

_codecs_utf_16_be_encode_impl.exit:               ; preds = %37, %34, %.thread, %13, %33, %6
  %.021 = phi ptr [ null, %33 ], [ null, %13 ], [ null, %6 ], [ null, %.thread ], [ %39, %37 ], [ null, %34 ]
  ret ptr %.021
}